; Function Attrs: nounwind uwtable
define range(i32 -2147483648, 1) i32 @avio_open2(ptr noundef captures(none) initializes((0, 8)) %0, ptr noundef %1, i32 noundef %2, ptr noundef readonly captures(address_is_null) %3, ptr noundef %4) local_unnamed_addr #3 {
  %6 = alloca ptr, align 8
  %7 = alloca ptr, align 8
  call void @llvm.lifetime.start.p0(i64 8, ptr nonnull %7) #12
  store ptr null, ptr %0, align 8, !tbaa !46
  %8 = call i32 @ffurl_open_whitelist(ptr noundef nonnull %7, ptr noundef %1, i32 noundef %2, ptr noundef readonly %3, ptr noundef %4, ptr noundef null, ptr noundef null, ptr noundef null)
  %9 = icmp slt i32 %8, 0
  br i1 %9, label %ffio_open_whitelist.exit, label %10

10:                                               ; preds = %5
  %11 = load ptr, ptr %7, align 8, !tbaa !41
  %12 = call i32 @ffio_fdopen(ptr noundef nonnull %0, ptr noundef %11)
  %13 = icmp slt i32 %12, 0
  br i1 %13, label %14, label %ffio_open_whitelist.exit

14:                                               ; preds = %10
  %15 = load ptr, ptr %7, align 8, !tbaa !41
  call void @llvm.lifetime.start.p0(i64 8, ptr nonnull %6)
  store ptr %15, ptr %6, align 8, !tbaa !41
  %16 = call i32 @ffurl_closep(ptr noundef nonnull %6)
  call void @llvm.lifetime.end.p0(i64 8, ptr nonnull %6)
  br label %ffio_open_whitelist.exit

ffio_open_whitelist.exit:                         ; preds = %5, %10, %14
  %.0.i = phi i32 [ %12, %14 ], [ %8, %5 ], [ 0, %10 ]
  call void @llvm.lifetime.end.p0(i64 8, ptr nonnull %7) #12
  ret i32 %.0.i
}